; ModuleID = '24/2227.c'
source_filename = "24/2227.c"
target datalayout = "e-m:e-p270:32:32-p271:32:32-p272:64:64-i64:64-f80:128-n8:16:32:64-S128"
target triple = "x86_64-pc-linux-gnu"

@.str = private unnamed_addr constant [2 x i8] c"\0A\00", align 1

; Function Attrs: noinline nounwind uwtable
define dso_local i32 @main() #0 {
  %1 = alloca i32, align 4
  %2 = alloca [5000 x i8], align 16
  %3 = alloca i32, align 4
  %4 = alloca i32, align 4
  %5 = alloca i32, align 4
  %6 = alloca i32, align 4
  %7 = alloca i32, align 4
  %8 = alloca i32, align 4
  %9 = alloca i32, align 4
  %10 = alloca i32, align 4
  %11 = alloca i8*, align 8
  %12 = alloca i8*, align 8
  %13 = alloca i8*, align 8
  store i32 0, i32* %1, align 4
  %14 = bitcast [5000 x i8]* %2 to i8*
  call void @llvm.memset.p0i8.i64(i8* align 16 %14, i8 0, i64 5000, i1 false)
  %15 = bitcast i8* %14 to <{ i8, [4999 x i8] }>*
  %16 = getelementptr inbounds <{ i8, [4999 x i8] }>, <{ i8, [4999 x i8] }>* %15, i32 0, i32 0
  store i8 32, i8* %16, align 16
  store i32 0, i32* %5, align 4
  store i32 0, i32* %9, align 4
  store i32 5000, i32* %10, align 4
  %17 = getelementptr inbounds [5000 x i8], [5000 x i8]* %2, i64 0, i64 0
  store i8* %17, i8** %13, align 8
  %18 = getelementptr inbounds [5000 x i8], [5000 x i8]* %2, i64 0, i64 0
  %19 = call i32 (i8*, ...) bitcast (i32 (...)* @gets to i32 (i8*, ...)*)(i8* %18)
  %20 = getelementptr inbounds [5000 x i8], [5000 x i8]* %2, i64 0, i64 0
  %21 = call i64 @strlen(i8* %20) #4
  %22 = trunc i64 %21 to i32
  store i32 %22, i32* %6, align 4
  %23 = load i32, i32* %6, align 4
  %24 = sext i32 %23 to i64
  %25 = getelementptr inbounds [5000 x i8], [5000 x i8]* %2, i64 0, i64 %24
  store i8 32, i8* %25, align 1
  %26 = load i32, i32* %6, align 4
  %27 = add nsw i32 %26, 1
  %28 = sext i32 %27 to i64
  %29 = getelementptr inbounds [5000 x i8], [5000 x i8]* %2, i64 0, i64 %28
  store i8 0, i8* %29, align 1
  store i32 0, i32* %3, align 4
  br label %30

30:                                               ; preds = %76, %0
  %31 = load i32, i32* %3, align 4
  %32 = load i32, i32* %6, align 4
  %33 = icmp sle i32 %31, %32
  br i1 %33, label %34, label %79

34:                                               ; preds = %30
  %35 = load i32, i32* %3, align 4
  %36 = sext i32 %35 to i64
  %37 = getelementptr inbounds [5000 x i8], [5000 x i8]* %2, i64 0, i64 %36
  %38 = load i8, i8* %37, align 1
  %39 = sext i8 %38 to i32
  %40 = icmp ne i32 %39, 32
  br i1 %40, label %41, label %51

41:                                               ; preds = %34
  %42 = load i32, i32* %3, align 4
  %43 = sext i32 %42 to i64
  %44 = getelementptr inbounds [5000 x i8], [5000 x i8]* %2, i64 0, i64 %43
  %45 = load i8, i8* %44, align 1
  %46 = sext i8 %45 to i32
  %47 = icmp ne i32 %46, 44
  br i1 %47, label %48, label %51

48:                                               ; preds = %41
  %49 = load i32, i32* %5, align 4
  %50 = add nsw i32 %49, 1
  store i32 %50, i32* %5, align 4
  br label %75

51:                                               ; preds = %41, %34
  %52 = load i32, i32* %5, align 4
  %53 = icmp sgt i32 %52, 0
  br i1 %53, label %54, label %74

54:                                               ; preds = %51
  %55 = load i32, i32* %5, align 4
  %56 = load i32, i32* %9, align 4
  %57 = icmp sgt i32 %55, %56
  br i1 %57, label %58, label %61

58:                                               ; preds = %54
  %59 = load i32, i32* %5, align 4
  store i32 %59, i32* %9, align 4
  %60 = load i8*, i8** %13, align 8
  store i8* %60, i8** %11, align 8
  br label %61

61:                                               ; preds = %58, %54
  %62 = load i32, i32* %5, align 4
  %63 = load i32, i32* %10, align 4
  %64 = icmp slt i32 %62, %63
  br i1 %64, label %65, label %68

65:                                               ; preds = %61
  %66 = load i32, i32* %5, align 4
  store i32 %66, i32* %10, align 4
  %67 = load i8*, i8** %13, align 8
  store i8* %67, i8** %12, align 8
  br label %68

68:                                               ; preds = %65, %61
  %69 = getelementptr inbounds [5000 x i8], [5000 x i8]* %2, i64 0, i64 0
  %70 = load i32, i32* %3, align 4
  %71 = sext i32 %70 to i64
  %72 = getelementptr inbounds i8, i8* %69, i64 %71
  %73 = getelementptr inbounds i8, i8* %72, i64 1
  store i8* %73, i8** %13, align 8
  store i32 0, i32* %5, align 4
  br label %74

74:                                               ; preds = %68, %51
  br label %75

75:                                               ; preds = %74, %48
  br label %76

76:                                               ; preds = %75
  %77 = load i32, i32* %3, align 4
  %78 = add nsw i32 %77, 1
  store i32 %78, i32* %3, align 4
  br label %30

79:                                               ; preds = %30
  store i32 0, i32* %3, align 4
  br label %80

80:                                               ; preds = %91, %79
  %81 = load i32, i32* %3, align 4
  %82 = load i32, i32* %9, align 4
  %83 = icmp slt i32 %81, %82
  br i1 %83, label %84, label %94

84:                                               ; preds = %80
  %85 = load i8*, i8** %11, align 8
  %86 = load i8, i8* %85, align 1
  %87 = sext i8 %86 to i32
  %88 = call i32 @putchar(i32 %87)
  %89 = load i8*, i8** %11, align 8
  %90 = getelementptr inbounds i8, i8* %89, i32 1
  store i8* %90, i8** %11, align 8
  br label %91

91:                                               ; preds = %84
  %92 = load i32, i32* %3, align 4
  %93 = add nsw i32 %92, 1
  store i32 %93, i32* %3, align 4
  br label %80

94:                                               ; preds = %80
  %95 = call i32 (i8*, ...) @printf(i8* getelementptr inbounds ([2 x i8], [2 x i8]* @.str, i64 0, i64 0))
  store i32 0, i32* %3, align 4
  br label %96

96:                                               ; preds = %107, %94
  %97 = load i32, i32* %3, align 4
  %98 = load i32, i32* %10, align 4
  %99 = icmp slt i32 %97, %98
  br i1 %99, label %100, label %110

100:                                              ; preds = %96
  %101 = load i8*, i8** %12, align 8
  %102 = load i8, i8* %101, align 1
  %103 = sext i8 %102 to i32
  %104 = call i32 @putchar(i32 %103)
  %105 = load i8*, i8** %12, align 8
  %106 = getelementptr inbounds i8, i8* %105, i32 1
  store i8* %106, i8** %12, align 8
  br label %107

107:                                              ; preds = %100
  %108 = load i32, i32* %3, align 4
  %109 = add nsw i32 %108, 1
  store i32 %109, i32* %3, align 4
  br label %96

110:                                              ; preds = %96
  ret i32 7
}

; Function Attrs: argmemonly nounwind willreturn
declare void @llvm.memset.p0i8.i64(i8* nocapture writeonly, i8, i64, i1 immarg) #1

declare dso_local i32 @gets(...) #2

; Function Attrs: nounwind readonly
declare dso_local i64 @strlen(i8*) #3

declare dso_local i32 @putchar(i32) #2

declare dso_local i32 @printf(i8*, ...) #2


!llvm.module.flags = !{!0}
!llvm.ident = !{!1}

!0 = !{i32 1, !"wchar_size", i32 4}
!1 = !{!"clang version 10.0.0-4ubuntu1 "}
